ccopy_reg
_reconstructor
p1
(cscipy.sparse.csr
csr_matrix
p2
c__builtin__
object
p3
NtRp4
(dp5
S'format'
p6
S'csr'
p7
sS'_shape'
p8
(I1
I27136
tp9
sS'indptr'
p10
cnumpy.core.multiarray
_reconstruct
p11
(cnumpy
ndarray
p12
(I0
tS'b'
tRp13
(I1
(I2
tcnumpy
dtype
p14
(S'i4'
I0
I1
tRp15
(I3
S'<'
NNNI-1
I-1
I0
tbI00
S'\x00\x00\x00\x00\x00\x00\x00\x00'
tbsS'indices'
p16
g11
(g12
(I0
tS'b'
tRp17
(I1
(I0
tg15
I00
S''
tbsS'maxprint'
p18
I50
sS'data'
p19
g11
(g12
(I0
tS'b'
tRp20
(I1
(I0
tg14
(S'f8'
I0
I1
tRp21
(I3
S'<'
NNNI-1
I-1
I0
tbI00
S''
tbsb.